; Function Attrs: nounwind uwtable
define internal noundef i32 @cipher_hw_idea_ecb_cipher(ptr noundef %0, ptr noundef %1, ptr noundef %2, i64 noundef %3) #1 {
  %5 = getelementptr inbounds nuw i8, ptr %0, i64 88
  %6 = load i64, ptr %5, align 8, !tbaa !19
  %7 = getelementptr inbounds nuw i8, ptr %0, i64 192
  %8 = icmp ult i64 %3, %6
  br i1 %8, label %.loopexit, label %9

9:                                                ; preds = %4
  %10 = sub nuw i64 %3, %6
  br label %11

11:                                               ; preds = %9, %11
  %.01517 = phi i64 [ 0, %9 ], [ %14, %11 ]
  %12 = getelementptr inbounds nuw i8, ptr %2, i64 %.01517
  %13 = getelementptr inbounds nuw i8, ptr %1, i64 %.01517
  tail call void @IDEA_ecb_encrypt(ptr noundef %12, ptr noundef %13, ptr noundef nonnull %7) #5
  %14 = add i64 %.01517, %6
  %.not = icmp ugt i64 %14, %10
  br i1 %.not, label %.loopexit, label %11, !llvm.loop !20

.loopexit:                                        ; preds = %11, %4
  ret i32 1
}